target datalayout = "e-m:e-p270:32:32-p271:32:32-p272:64:64-i64:64-i128:128-f80:128-n8:16:32:64-S128"
target triple = "x86_64-pc-linux-gnu"

%struct.dt_selection_t = type { ptr, i32 }

@.str.21 = private unnamed_addr constant [116 x i8] c"SELECT s.imgid FROM main.selected_images as s WHERE s.imgid IN (SELECT m.imgid FROM memory.collected_images as m)%s\00", align 1
@.str.22 = private unnamed_addr constant [19 x i8] c" ORDER BY num DESC\00", align 1
@.str.23 = private unnamed_addr constant [1 x i8] zeroinitializer, align 1
@.str.24 = private unnamed_addr constant [101 x i8] c"SELECT DISTINCT ng.id FROM (%s) AS ng WHERE ng.id IN (SELECT s.imgid FROM main.selected_images as s)\00", align 1
@.str.25 = private unnamed_addr constant [39 x i8] c"SELECT imgid FROM main.selected_images\00", align 1

; Function Attrs: nounwind uwtable
define ptr @dt_selection_get_collection(ptr noundef %0) #0 {
  %2 = alloca ptr, align 8
  store ptr %0, ptr %2, align 8, !tbaa !6
  %3 = load ptr, ptr %2, align 8, !tbaa !6
  %4 = getelementptr inbounds nuw %struct.dt_selection_t, ptr %3, i32 0, i32 0
  %5 = load ptr, ptr %4, align 8, !tbaa !11
  ret ptr %5
}

; Function Attrs: nounwind uwtable
define ptr @dt_selection_get_list_query(ptr noundef %0, i32 noundef %1, i32 noundef %2) #0 {
  %4 = alloca ptr, align 8
  %5 = alloca i32, align 4
  %6 = alloca i32, align 4
  %7 = alloca ptr, align 8
  store ptr %0, ptr %4, align 8, !tbaa !6
  store i32 %1, ptr %5, align 4, !tbaa !56
  store i32 %2, ptr %6, align 4, !tbaa !56
  call void @llvm.lifetime.start.p0(i64 8, ptr %7) #5
  store ptr null, ptr %7, align 8, !tbaa !60
  %8 = load i32, ptr %5, align 4, !tbaa !56
  %9 = icmp ne i32 %8, 0
  br i1 %9, label %10, label %15

10:                                               ; preds = %3
  %11 = load i32, ptr %6, align 4, !tbaa !56
  %12 = icmp ne i32 %11, 0
  %13 = select i1 %12, ptr @.str.22, ptr @.str.23
  %14 = call noalias ptr (ptr, ...) @g_strdup_printf(ptr noundef @.str.21, ptr noundef %13)
  store ptr %14, ptr %7, align 8, !tbaa !60
  br label %26

15:                                               ; preds = %3
  %16 = load i32, ptr %6, align 4, !tbaa !56
  %17 = icmp ne i32 %16, 0
  br i1 %17, label %18, label %23

18:                                               ; preds = %15
  %19 = load ptr, ptr %4, align 8, !tbaa !6
  %20 = call ptr @dt_selection_get_collection(ptr noundef %19)
  %21 = call ptr @dt_collection_get_query_no_group(ptr noundef %20)
  %22 = call noalias ptr (ptr, ...) @g_strdup_printf(ptr noundef @.str.24, ptr noundef %21)
  store ptr %22, ptr %7, align 8, !tbaa !60
  br label %25

23:                                               ; preds = %15
  %24 = call noalias ptr @g_strdup(ptr noundef @.str.25)
  store ptr %24, ptr %7, align 8, !tbaa !60
  br label %25

25:                                               ; preds = %23, %18
  br label %26

26:                                               ; preds = %25, %10
  %27 = load ptr, ptr %7, align 8, !tbaa !60
  call void @llvm.lifetime.end.p0(i64 8, ptr %7) #5
  ret ptr %27
}