; Function Attrs: nounwind uwtable
define noalias ptr @dt_selection_get_list_query(ptr noundef readonly captures(none) %0, i32 noundef %1, i32 noundef %2) local_unnamed_addr #1 {
  %.not = icmp eq i32 %1, 0
  %.not4 = icmp eq i32 %2, 0
  br i1 %.not, label %7, label %4

4:                                                ; preds = %3
  %5 = select i1 %.not4, ptr @.str.23, ptr @.str.22
  %6 = tail call noalias ptr (ptr, ...) @g_strdup_printf(ptr noundef nonnull @.str.21, ptr noundef nonnull %5) #8
  br label %14

7:                                                ; preds = %3
  br i1 %.not4, label %12, label %8

8:                                                ; preds = %7
  %9 = load ptr, ptr %0, align 8, !tbaa !6
  %10 = tail call ptr @dt_collection_get_query_no_group(ptr noundef %9) #8
  %11 = tail call noalias ptr (ptr, ...) @g_strdup_printf(ptr noundef nonnull @.str.24, ptr noundef %10) #8
  br label %14

12:                                               ; preds = %7
  %13 = tail call noalias ptr @g_strdup(ptr noundef nonnull @.str.25) #8
  br label %14

14:                                               ; preds = %8, %12, %4
  %.0 = phi ptr [ %6, %4 ], [ %11, %8 ], [ %13, %12 ]
  ret ptr %.0
}